target datalayout = "e-m:e-p270:32:32-p271:32:32-p272:64:64-i64:64-i128:128-f80:128-n8:16:32:64-S128"
target triple = "x86_64-pc-linux-gnu"

%"struct.boost::json::object::table" = type { i32, i32, i64 }
%"class.boost::json::value" = type { %union.anon.1 }
%union.anon.1 = type { %"class.boost::json::array" }
%"class.boost::json::array" = type { %"class.boost::json::storage_ptr", i8, ptr }
%"class.boost::json::storage_ptr" = type { i64 }
%"class.boost::json::object" = type { %"class.boost::json::storage_ptr", i8, ptr }
%"class.boost::json::key_value_pair" = type { %"class.boost::json::value", ptr, i32, i32 }
%"class.boost::json::object::revert_insert" = type { ptr, ptr, i64 }

@_ZN5boost4json14key_value_pair6empty_E = constant [1 x i8] zeroinitializer, align 1
@_ZN5boost4json6detail16default_resource9instance_E = global { ptr } { ptr getelementptr inbounds inrange(-16, 40) ({ [7 x ptr] }, ptr @_ZTVN5boost4json6detail16default_resourceE, i32 0, i32 0, i32 2) }, align 8
@_ZN5boost4json5valueD1Ev = unnamed_addr alias void (ptr), ptr @_ZN5boost4json5valueD2Ev

; Function Attrs: mustprogress nounwind uwtable
define linkonce_odr hidden noundef ptr @_ZN5boost4json6detail16default_resource3getEv() #2 comdat align 2 {
  ret ptr @_ZN5boost4json6detail16default_resource9instance_E
}

; Function Attrs: mustprogress nounwind uwtable
define linkonce_odr hidden noundef ptr @_ZNK5boost4json11storage_ptr3getEv(ptr noundef nonnull align 8 dereferenceable(8) %0) #2 comdat align 2 {
  %2 = alloca ptr, align 8
  %3 = alloca ptr, align 8
  store ptr %0, ptr %3, align 8, !tbaa !3
  %4 = load ptr, ptr %3, align 8
  %5 = getelementptr inbounds nuw %"class.boost::json::storage_ptr", ptr %4, i32 0, i32 0
  %6 = load i64, ptr %5, align 8, !tbaa !35
  %7 = icmp ne i64 %6, 0
  br i1 %7, label %8, label %13

8:                                                ; preds = %1
  %9 = getelementptr inbounds nuw %"class.boost::json::storage_ptr", ptr %4, i32 0, i32 0
  %10 = load i64, ptr %9, align 8, !tbaa !35
  %11 = and i64 %10, -4
  %12 = inttoptr i64 %11 to ptr
  store ptr %12, ptr %2, align 8
  br label %15

13:                                               ; preds = %1
  %14 = call noundef ptr @_ZN5boost4json6detail16default_resource3getEv() #10
  store ptr %14, ptr %2, align 8
  br label %15

15:                                               ; preds = %13, %8
  %16 = load ptr, ptr %2, align 8
  ret ptr %16
}

; Function Attrs: mustprogress uwtable
define linkonce_odr hidden void @_ZN5boost9container3pmr15memory_resource10deallocateEPvmm(ptr noundef nonnull align 8 dereferenceable(8) %0, ptr noundef %1, i64 noundef %2, i64 noundef %3) #5 comdat align 2 {
  %5 = alloca ptr, align 8
  %6 = alloca ptr, align 8
  %7 = alloca i64, align 8
  %8 = alloca i64, align 8
  store ptr %0, ptr %5, align 8, !tbaa !3
  store ptr %1, ptr %6, align 8, !tbaa !3
  store i64 %2, ptr %7, align 8, !tbaa !16
  store i64 %3, ptr %8, align 8, !tbaa !16
  %9 = load ptr, ptr %5, align 8
  %10 = load ptr, ptr %6, align 8, !tbaa !3
  %11 = load i64, ptr %7, align 8, !tbaa !16
  %12 = load i64, ptr %8, align 8, !tbaa !16
  %13 = load ptr, ptr %9, align 8, !tbaa !14
  %14 = getelementptr inbounds ptr, ptr %13, i64 3
  %15 = load ptr, ptr %14, align 8
  call void %15(ptr noundef nonnull align 8 dereferenceable(8) %9, ptr noundef %10, i64 noundef %11, i64 noundef %12)
  ret void
}

; Function Attrs: mustprogress nounwind uwtable
define linkonce_odr hidden noundef ptr @_ZNK5boost4json11storage_ptrptEv(ptr noundef nonnull align 8 dereferenceable(8) %0) #2 comdat align 2 {
  %2 = alloca ptr, align 8
  store ptr %0, ptr %2, align 8, !tbaa !3
  %3 = load ptr, ptr %2, align 8
  %4 = call noundef ptr @_ZNK5boost4json11storage_ptr3getEv(ptr noundef nonnull align 8 dereferenceable(8) %3) #10
  ret ptr %4
}

; Function Attrs: mustprogress nounwind uwtable
define linkonce_odr hidden noundef zeroext i1 @_ZNK5boost4json11storage_ptr39is_not_shared_and_deallocate_is_trivialEv(ptr noundef nonnull align 8 dereferenceable(8) %0) #2 comdat align 2 {
  %2 = alloca ptr, align 8
  store ptr %0, ptr %2, align 8, !tbaa !3
  %3 = load ptr, ptr %2, align 8
  %4 = getelementptr inbounds nuw %"class.boost::json::storage_ptr", ptr %3, i32 0, i32 0
  %5 = load i64, ptr %4, align 8, !tbaa !35
  %6 = and i64 %5, 3
  %7 = icmp eq i64 %6, 2
  ret i1 %7
}

; Function Attrs: mustprogress nounwind uwtable
define linkonce_odr hidden noundef nonnull align 8 dereferenceable(8) ptr @_ZNK5boost4json5value7storageEv(ptr noundef nonnull align 8 dereferenceable(24) %0) #2 comdat align 2 {
  %2 = alloca ptr, align 8
  store ptr %0, ptr %2, align 8, !tbaa !3
  %3 = load ptr, ptr %2, align 8
  %4 = getelementptr inbounds nuw %"class.boost::json::value", ptr %3, i32 0, i32 0
  ret ptr %4
}

; Function Attrs: mustprogress nounwind uwtable
define linkonce_odr hidden void @_ZN5boost4json14key_value_pairD2Ev(ptr noundef nonnull align 8 dereferenceable(40) %0) unnamed_addr #2 comdat align 2 personality ptr @__gxx_personality_v0 {
  %2 = alloca ptr, align 8
  %3 = alloca ptr, align 8
  %4 = alloca i32, align 4
  store ptr %0, ptr %2, align 8, !tbaa !3
  %5 = load ptr, ptr %2, align 8
  call void @llvm.lifetime.start.p0(i64 8, ptr %3) #10
  %6 = getelementptr inbounds nuw %"class.boost::json::key_value_pair", ptr %5, i32 0, i32 0
  %7 = call noundef nonnull align 8 dereferenceable(8) ptr @_ZNK5boost4json5value7storageEv(ptr noundef nonnull align 8 dereferenceable(24) %6) #10
  store ptr %7, ptr %3, align 8, !tbaa !3
  %8 = load ptr, ptr %3, align 8, !tbaa !3
  %9 = call noundef zeroext i1 @_ZNK5boost4json11storage_ptr39is_not_shared_and_deallocate_is_trivialEv(ptr noundef nonnull align 8 dereferenceable(8) %8) #10
  br i1 %9, label %10, label %11

10:                                               ; preds = %1
  store i32 1, ptr %4, align 4
  br label %26

11:                                               ; preds = %1
  %12 = getelementptr inbounds nuw %"class.boost::json::key_value_pair", ptr %5, i32 0, i32 1
  %13 = load ptr, ptr %12, align 8, !tbaa !97
  %14 = icmp eq ptr %13, @_ZN5boost4json14key_value_pair6empty_E
  br i1 %14, label %15, label %16

15:                                               ; preds = %11
  store i32 1, ptr %4, align 4
  br label %26

16:                                               ; preds = %11
  %17 = load ptr, ptr %3, align 8, !tbaa !3
  %18 = call noundef ptr @_ZNK5boost4json11storage_ptrptEv(ptr noundef nonnull align 8 dereferenceable(8) %17) #10
  %19 = getelementptr inbounds nuw %"class.boost::json::key_value_pair", ptr %5, i32 0, i32 1
  %20 = load ptr, ptr %19, align 8, !tbaa !97
  %21 = getelementptr inbounds nuw %"class.boost::json::key_value_pair", ptr %5, i32 0, i32 2
  %22 = load i32, ptr %21, align 8, !tbaa !100
  %23 = add i32 %22, 1
  %24 = zext i32 %23 to i64
  invoke void @_ZN5boost9container3pmr15memory_resource10deallocateEPvmm(ptr noundef nonnull align 8 dereferenceable(8) %18, ptr noundef %20, i64 noundef %24, i64 noundef 1)
          to label %25 unwind label %33

25:                                               ; preds = %16
  store i32 0, ptr %4, align 4
  br label %26

26:                                               ; preds = %25, %15, %10
  call void @llvm.lifetime.end.p0(i64 8, ptr %3) #10
  %27 = load i32, ptr %4, align 4
  switch i32 %27, label %29 [
    i32 0, label %28
  ]

28:                                               ; preds = %26
  store i32 0, ptr %4, align 4
  br label %29

29:                                               ; preds = %28, %26
  %30 = getelementptr inbounds nuw %"class.boost::json::key_value_pair", ptr %5, i32 0, i32 0
  call void @_ZN5boost4json5valueD1Ev(ptr noundef nonnull align 8 dereferenceable(24) %30) #10
  %31 = load i32, ptr %4, align 4
  switch i32 %31, label %36 [
    i32 0, label %32
    i32 1, label %32
  ]

32:                                               ; preds = %29, %29
  ret void

33:                                               ; preds = %16
  %34 = landingpad { ptr, i32 }
          catch ptr null
  %35 = extractvalue { ptr, i32 } %34, 0
  call void @__clang_call_terminate(ptr %35) #34
  unreachable

36:                                               ; preds = %29
  unreachable
}

; Function Attrs: inlinehint mustprogress nounwind uwtable
define linkonce_odr hidden void @_ZN5boost4json6object7destroyEPNS0_14key_value_pairES3_(ptr noundef nonnull align 8 dereferenceable(24) %0, ptr noundef %1, ptr noundef %2) #1 comdat align 2 {
  %4 = alloca ptr, align 8
  %5 = alloca ptr, align 8
  %6 = alloca ptr, align 8
  store ptr %0, ptr %4, align 8, !tbaa !3
  store ptr %1, ptr %5, align 8, !tbaa !3
  store ptr %2, ptr %6, align 8, !tbaa !3
  br label %7

7:                                                ; preds = %11, %3
  %8 = load ptr, ptr %6, align 8, !tbaa !3
  %9 = load ptr, ptr %5, align 8, !tbaa !3
  %10 = icmp ne ptr %8, %9
  br i1 %10, label %11, label %14

11:                                               ; preds = %7
  %12 = load ptr, ptr %6, align 8, !tbaa !3
  %13 = getelementptr inbounds %"class.boost::json::key_value_pair", ptr %12, i32 -1
  store ptr %13, ptr %6, align 8, !tbaa !3
  call void @_ZN5boost4json14key_value_pairD2Ev(ptr noundef nonnull align 8 dereferenceable(40) %13) #10
  br label %7, !llvm.loop !107

14:                                               ; preds = %7
  ret void
}

; Function Attrs: inlinehint mustprogress nounwind uwtable
define linkonce_odr hidden noundef ptr @_ZN5boost4json6object3endEv(ptr noundef nonnull align 8 dereferenceable(24) %0) #1 comdat align 2 {
  %2 = alloca ptr, align 8
  store ptr %0, ptr %2, align 8, !tbaa !3
  %3 = load ptr, ptr %2, align 8
  %4 = getelementptr inbounds nuw %"class.boost::json::object", ptr %3, i32 0, i32 2
  %5 = load ptr, ptr %4, align 8, !tbaa !84
  %6 = getelementptr inbounds nuw %"class.boost::json::object", ptr %3, i32 0, i32 2
  %7 = load ptr, ptr %6, align 8, !tbaa !84
  %8 = getelementptr inbounds nuw %"struct.boost::json::object::table", ptr %7, i32 0, i32 0
  %9 = load i32, ptr %8, align 8, !tbaa !86
  %10 = zext i32 %9 to i64
  %11 = call noundef nonnull align 8 dereferenceable(40) ptr @_ZN5boost4json6object5tableixEm(ptr noundef nonnull align 8 dereferenceable(16) %5, i64 noundef %10) #10
  ret ptr %11
}

; Function Attrs: mustprogress nounwind uwtable
define linkonce_odr hidden noundef nonnull align 8 dereferenceable(40) ptr @_ZN5boost4json6object5tableixEm(ptr noundef nonnull align 8 dereferenceable(16) %0, i64 noundef %1) #2 comdat align 2 {
  %3 = alloca ptr, align 8
  %4 = alloca i64, align 8
  store ptr %0, ptr %3, align 8, !tbaa !3
  store i64 %1, ptr %4, align 8, !tbaa !16
  %5 = load ptr, ptr %3, align 8
  %6 = getelementptr inbounds %"struct.boost::json::object::table", ptr %5, i64 1
  %7 = load i64, ptr %4, align 8, !tbaa !16
  %8 = getelementptr inbounds nuw %"class.boost::json::key_value_pair", ptr %6, i64 %7
  ret ptr %8
}

; Function Attrs: mustprogress nounwind uwtable
define void @_ZN5boost4json6object13revert_insert7destroyEv(ptr noundef nonnull align 8 dereferenceable(24) %0) #2 align 2 {
  %2 = alloca ptr, align 8
  store ptr %0, ptr %2, align 8, !tbaa !3
  %3 = load ptr, ptr %2, align 8
  %4 = getelementptr inbounds nuw %"class.boost::json::object::revert_insert", ptr %3, i32 0, i32 0
  %5 = load ptr, ptr %4, align 8, !tbaa !104
  %6 = getelementptr inbounds nuw %"class.boost::json::object::revert_insert", ptr %3, i32 0, i32 0
  %7 = load ptr, ptr %6, align 8, !tbaa !104
  %8 = getelementptr inbounds nuw %"class.boost::json::object", ptr %7, i32 0, i32 2
  %9 = load ptr, ptr %8, align 8, !tbaa !84
  %10 = getelementptr inbounds nuw %"class.boost::json::object::revert_insert", ptr %3, i32 0, i32 2
  %11 = load i64, ptr %10, align 8, !tbaa !106
  %12 = call noundef nonnull align 8 dereferenceable(40) ptr @_ZN5boost4json6object5tableixEm(ptr noundef nonnull align 8 dereferenceable(16) %9, i64 noundef %11) #10
  %13 = getelementptr inbounds nuw %"class.boost::json::object::revert_insert", ptr %3, i32 0, i32 0
  %14 = load ptr, ptr %13, align 8, !tbaa !104
  %15 = call noundef ptr @_ZN5boost4json6object3endEv(ptr noundef nonnull align 8 dereferenceable(24) %14) #10
  call void @_ZN5boost4json6object7destroyEPNS0_14key_value_pairES3_(ptr noundef nonnull align 8 dereferenceable(24) %5, ptr noundef %12, ptr noundef %15) #10
  ret void
}