; Function Attrs: mustprogress nounwind uwtable
define void @_ZN5boost4json6object13revert_insert7destroyEv(ptr nocapture noundef nonnull readonly align 8 dereferenceable(24) %0) local_unnamed_addr #7 align 2 personality ptr @__gxx_personality_v0 {
  %2 = load ptr, ptr %0, align 8, !tbaa !118
  %3 = getelementptr inbounds nuw i8, ptr %2, i64 16
  %4 = load ptr, ptr %3, align 8, !tbaa !102
  %5 = getelementptr inbounds nuw i8, ptr %0, i64 16
  %6 = load i64, ptr %5, align 8, !tbaa !120
  %7 = getelementptr inbounds i8, ptr %4, i64 16
  %8 = getelementptr inbounds nuw %"class.boost::json::key_value_pair", ptr %7, i64 %6
  %9 = load i32, ptr %4, align 8, !tbaa !106
  %10 = zext i32 %9 to i64
  %.not3.i = icmp eq i64 %6, %10
  br i1 %.not3.i, label %_ZN5boost4json6object7destroyEPNS0_14key_value_pairES3_.exit, label %.lr.ph.i.preheader

.lr.ph.i.preheader:                               ; preds = %1
  %11 = getelementptr inbounds nuw %"class.boost::json::key_value_pair", ptr %7, i64 %10
  br label %.lr.ph.i

.lr.ph.i:                                         ; preds = %.lr.ph.i.preheader, %_ZN5boost4json14key_value_pairD2Ev.exit.i
  %.04.i = phi ptr [ %12, %_ZN5boost4json14key_value_pairD2Ev.exit.i ], [ %11, %.lr.ph.i.preheader ]
  %12 = getelementptr inbounds i8, ptr %.04.i, i64 -40
  %13 = load i64, ptr %12, align 8, !tbaa !17
  %14 = and i64 %13, 3
  %15 = icmp eq i64 %14, 2
  br i1 %15, label %_ZN5boost4json14key_value_pairD2Ev.exit.i, label %16

16:                                               ; preds = %.lr.ph.i
  %17 = getelementptr inbounds i8, ptr %.04.i, i64 -16
  %18 = load ptr, ptr %17, align 8, !tbaa !111
  %19 = icmp eq ptr %18, @_ZN5boost4json14key_value_pair6empty_E
  br i1 %19, label %_ZN5boost4json14key_value_pairD2Ev.exit.i, label %20

20:                                               ; preds = %16
  %.not.i.i.i.i = icmp eq i64 %13, 0
  %21 = and i64 %13, -4
  %22 = inttoptr i64 %21 to ptr
  %.0.i.i.i.i = select i1 %.not.i.i.i.i, ptr @_ZN5boost4json6detail16default_resource9instance_E, ptr %22
  %23 = getelementptr inbounds i8, ptr %.04.i, i64 -8
  %24 = load i32, ptr %23, align 8, !tbaa !107
  %25 = add i32 %24, 1
  %26 = zext i32 %25 to i64
  %27 = load ptr, ptr %.0.i.i.i.i, align 8, !tbaa !19
  %28 = getelementptr inbounds i8, ptr %27, i64 24
  %29 = load ptr, ptr %28, align 8
  invoke void %29(ptr noundef nonnull align 8 dereferenceable(8) %.0.i.i.i.i, ptr noundef %18, i64 noundef %26, i64 noundef 1)
          to label %_ZN5boost4json14key_value_pairD2Ev.exit.i unwind label %30

30:                                               ; preds = %20
  %31 = landingpad { ptr, i32 }
          catch ptr null
  %32 = extractvalue { ptr, i32 } %31, 0
  tail call void @__clang_call_terminate(ptr %32) #50
  unreachable

_ZN5boost4json14key_value_pairD2Ev.exit.i:        ; preds = %20, %16, %.lr.ph.i
  tail call void @_ZN5boost4json5valueD1Ev(ptr noundef nonnull align 8 dereferenceable(40) %12) #48
  %.not.i = icmp eq ptr %12, %8
  br i1 %.not.i, label %_ZN5boost4json6object7destroyEPNS0_14key_value_pairES3_.exit, label %.lr.ph.i, !llvm.loop !117

_ZN5boost4json6object7destroyEPNS0_14key_value_pairES3_.exit: ; preds = %_ZN5boost4json14key_value_pairD2Ev.exit.i, %1
  ret void
}